(dp0
Vengine
p1
Vpdflatex
p2
sVpackages
p3
c__builtin__
set
p4
((lp5
tp6
Rp7
sVfiles_with_guttermarks
p8
g4
((lp9
S'publication.tex'
p10
aV/Users/justinbrown/Dropbox/pisces/documentation/./text/model.tex
p11
atp12
Rp13
sVsynctex
p14
I01
s.