(dp0
Vengine
p1
Vpdflatex
p2
sVpackages
p3
c__builtin__
set
p4
((lp5
Vhyperref
p6
aVamsmath
p7
aVsubfig
p8
aVifthen
p9
aVmedia9
p10
aVgraphicx
p11
aVnatbib
p12
atp13
Rp14
sVfiles_with_guttermarks
p15
g4
((lp16
V/Users/justinbrown/Dropbox/pisces/documentation/seminar.tex
p17
aV/Users/justinbrown/Dropbox/pisces/documentation/./seminar.tex
p18
aS'seminar.tex'
p19
atp20
Rp21
sVsynctex
p22
I01
s.